; Listing generated by Microsoft (R) Optimizing Compiler Version 18.00.30723.0 

	TITLE	E:\github.com\andlabs\barspy\call\loadlibrary\call.cpp
	.686P
	.XMM
	include listing.inc
	.model	flat

INCLUDELIB LIBCMT
INCLUDELIB OLDNAMES

PUBLIC	?ThreadProc@@YGKPAX@Z				; ThreadProc
; Function compile flags: /Odtp
_TEXT	SEGMENT
_a$ = -4						; size = 4
_lpParameter$ = 8					; size = 4
?ThreadProc@@YGKPAX@Z PROC				; ThreadProc
; File e:\github.com\andlabs\barspy\call\loadlibrary\call.cpp
; Line 30
  00000	55		 push	 ebp
  00001	8b ec		 mov	 ebp, esp
  00003	51		 push	 ecx
; Line 31
  00004	8b 45 08	 mov	 eax, DWORD PTR _lpParameter$[ebp]
  00007	89 45 fc	 mov	 DWORD PTR _a$[ebp], eax
; Line 33
  0000a	8b 4d fc	 mov	 ecx, DWORD PTR _a$[ebp]
  0000d	8b 51 08	 mov	 edx, DWORD PTR [ecx+8]
  00010	52		 push	 edx
  00011	8b 45 fc	 mov	 eax, DWORD PTR _a$[ebp]
  00014	8b 08		 mov	 ecx, DWORD PTR [eax]
  00016	ff d1		 call	 ecx
  00018	8b 55 fc	 mov	 edx, DWORD PTR _a$[ebp]
  0001b	89 42 0c	 mov	 DWORD PTR [edx+12], eax
; Line 34
  0001e	8b 45 fc	 mov	 eax, DWORD PTR _a$[ebp]
  00021	8b 48 04	 mov	 ecx, DWORD PTR [eax+4]
  00024	ff d1		 call	 ecx
  00026	8b 55 fc	 mov	 edx, DWORD PTR _a$[ebp]
  00029	89 42 10	 mov	 DWORD PTR [edx+16], eax
; Line 35
  0002c	33 c0		 xor	 eax, eax
; Line 36
  0002e	8b e5		 mov	 esp, ebp
  00030	5d		 pop	 ebp
  00031	c2 04 00	 ret	 4
?ThreadProc@@YGKPAX@Z ENDP				; ThreadProc
_TEXT	ENDS
END
