; Listing generated by Microsoft (R) Optimizing Compiler Version 18.00.30723.0 

include listing.inc

INCLUDELIB LIBCMT
INCLUDELIB OLDNAMES

PUBLIC	?ThreadProc@@YAKPEAX@Z				; ThreadProc
pdata	SEGMENT
$pdata$?ThreadProc@@YAKPEAX@Z DD imagerel $LN8
	DD	imagerel $LN8+178
	DD	imagerel $unwind$?ThreadProc@@YAKPEAX@Z
pdata	ENDS
xdata	SEGMENT
$unwind$?ThreadProc@@YAKPEAX@Z DD 010901H
	DD	06209H
xdata	ENDS
; Function compile flags: /Odtp
_TEXT	SEGMENT
a$ = 32
stream$ = 40
lpParameter$ = 64
?ThreadProc@@YAKPEAX@Z PROC				; ThreadProc
; File e:\github.com\andlabs\barspy\call\writeimglist6\call.cpp
; Line 32
$LN8:
  00000	48 89 4c 24 08	 mov	 QWORD PTR [rsp+8], rcx
  00005	48 83 ec 38	 sub	 rsp, 56			; 00000038H
; Line 33
  00009	48 8b 44 24 40	 mov	 rax, QWORD PTR lpParameter$[rsp]
  0000e	48 89 44 24 20	 mov	 QWORD PTR a$[rsp], rax
; Line 34
  00013	48 c7 44 24 28
	00 00 00 00	 mov	 QWORD PTR stream$[rsp], 0
; Line 37
  0001c	4c 8d 44 24 28	 lea	 r8, QWORD PTR stream$[rsp]
  00021	33 d2		 xor	 edx, edx
  00023	33 c9		 xor	 ecx, ecx
  00025	48 8b 44 24 20	 mov	 rax, QWORD PTR a$[rsp]
  0002a	ff 10		 call	 QWORD PTR [rax]
  0002c	48 8b 4c 24 20	 mov	 rcx, QWORD PTR a$[rsp]
  00031	89 41 28	 mov	 DWORD PTR [rcx+40], eax
; Line 38
  00034	48 8b 44 24 20	 mov	 rax, QWORD PTR a$[rsp]
  00039	83 78 28 00	 cmp	 DWORD PTR [rax+40], 0
  0003d	74 04		 je	 SHORT $LN5@ThreadProc
; Line 39
  0003f	eb 52		 jmp	 SHORT $LN4@ThreadProc
  00041	eb 50		 jmp	 SHORT $out$9
$LN5@ThreadProc:
; Line 40
  00043	4c 8b 44 24 28	 mov	 r8, QWORD PTR stream$[rsp]
  00048	33 d2		 xor	 edx, edx
  0004a	48 8b 44 24 20	 mov	 rax, QWORD PTR a$[rsp]
  0004f	48 8b 48 18	 mov	 rcx, QWORD PTR [rax+24]
  00053	48 8b 44 24 20	 mov	 rax, QWORD PTR a$[rsp]
  00058	ff 50 10	 call	 QWORD PTR [rax+16]
  0005b	48 8b 4c 24 20	 mov	 rcx, QWORD PTR a$[rsp]
  00060	89 41 28	 mov	 DWORD PTR [rcx+40], eax
; Line 41
  00063	48 8b 44 24 20	 mov	 rax, QWORD PTR a$[rsp]
  00068	83 78 28 00	 cmp	 DWORD PTR [rax+40], 0
  0006c	74 04		 je	 SHORT $LN3@ThreadProc
; Line 42
  0006e	eb 23		 jmp	 SHORT $LN2@ThreadProc
  00070	eb 21		 jmp	 SHORT $out$9
$LN3@ThreadProc:
; Line 43
  00072	48 8b 44 24 20	 mov	 rax, QWORD PTR a$[rsp]
  00077	48 83 c0 20	 add	 rax, 32			; 00000020H
  0007b	48 8b d0	 mov	 rdx, rax
  0007e	48 8b 4c 24 28	 mov	 rcx, QWORD PTR stream$[rsp]
  00083	48 8b 44 24 20	 mov	 rax, QWORD PTR a$[rsp]
  00088	ff 50 08	 call	 QWORD PTR [rax+8]
  0008b	48 8b 4c 24 20	 mov	 rcx, QWORD PTR a$[rsp]
  00090	89 41 28	 mov	 DWORD PTR [rcx+40], eax
$LN2@ThreadProc:
$LN4@ThreadProc:
$out$9:
; Line 46
  00093	48 83 7c 24 28
	00		 cmp	 QWORD PTR stream$[rsp], 0
  00099	74 10		 je	 SHORT $LN1@ThreadProc
; Line 47
  0009b	48 8b 44 24 28	 mov	 rax, QWORD PTR stream$[rsp]
  000a0	48 8b 00	 mov	 rax, QWORD PTR [rax]
  000a3	48 8b 4c 24 28	 mov	 rcx, QWORD PTR stream$[rsp]
  000a8	ff 50 10	 call	 QWORD PTR [rax+16]
$LN1@ThreadProc:
; Line 48
  000ab	33 c0		 xor	 eax, eax
; Line 49
  000ad	48 83 c4 38	 add	 rsp, 56			; 00000038H
  000b1	c3		 ret	 0
?ThreadProc@@YAKPEAX@Z ENDP				; ThreadProc
_TEXT	ENDS
END
