; Listing generated by Microsoft (R) Optimizing Compiler Version 18.00.30723.0 

	TITLE	E:\github.com\andlabs\barspy\call\dllgetversion\call.cpp
	.686P
	.XMM
	include listing.inc
	.model	flat

INCLUDELIB LIBCMT
INCLUDELIB OLDNAMES

PUBLIC	?ThreadProc@@YGKPAX@Z				; ThreadProc
; Function compile flags: /Odtp
_TEXT	SEGMENT
_dvi$ = -24						; size = 20
_a$ = -4						; size = 4
_lpParameter$ = 8					; size = 4
?ThreadProc@@YGKPAX@Z PROC				; ThreadProc
; File e:\github.com\andlabs\barspy\call\dllgetversion\call.cpp
; Line 34
  00000	55		 push	 ebp
  00001	8b ec		 mov	 ebp, esp
  00003	83 ec 18	 sub	 esp, 24			; 00000018H
; Line 35
  00006	8b 45 08	 mov	 eax, DWORD PTR _lpParameter$[ebp]
  00009	89 45 fc	 mov	 DWORD PTR _a$[ebp], eax
; Line 38
  0000c	33 c9		 xor	 ecx, ecx
  0000e	89 4d e8	 mov	 DWORD PTR _dvi$[ebp], ecx
  00011	89 4d ec	 mov	 DWORD PTR _dvi$[ebp+4], ecx
  00014	89 4d f0	 mov	 DWORD PTR _dvi$[ebp+8], ecx
  00017	89 4d f4	 mov	 DWORD PTR _dvi$[ebp+12], ecx
  0001a	89 4d f8	 mov	 DWORD PTR _dvi$[ebp+16], ecx
; Line 39
  0001d	c7 45 e8 14 00
	00 00		 mov	 DWORD PTR _dvi$[ebp], 20 ; 00000014H
; Line 40
  00024	8d 55 e8	 lea	 edx, DWORD PTR _dvi$[ebp]
  00027	52		 push	 edx
  00028	8b 45 fc	 mov	 eax, DWORD PTR _a$[ebp]
  0002b	8b 08		 mov	 ecx, DWORD PTR [eax]
  0002d	ff d1		 call	 ecx
  0002f	8b 55 fc	 mov	 edx, DWORD PTR _a$[ebp]
  00032	89 42 0c	 mov	 DWORD PTR [edx+12], eax
; Line 41
  00035	8b 45 fc	 mov	 eax, DWORD PTR _a$[ebp]
  00038	8b 4d ec	 mov	 ecx, DWORD PTR _dvi$[ebp+4]
  0003b	89 48 04	 mov	 DWORD PTR [eax+4], ecx
; Line 42
  0003e	8b 55 fc	 mov	 edx, DWORD PTR _a$[ebp]
  00041	8b 45 f0	 mov	 eax, DWORD PTR _dvi$[ebp+8]
  00044	89 42 08	 mov	 DWORD PTR [edx+8], eax
; Line 43
  00047	33 c0		 xor	 eax, eax
; Line 44
  00049	8b e5		 mov	 esp, ebp
  0004b	5d		 pop	 ebp
  0004c	c2 04 00	 ret	 4
?ThreadProc@@YGKPAX@Z ENDP				; ThreadProc
_TEXT	ENDS
END
