; Listing generated by Microsoft (R) Optimizing Compiler Version 18.00.30723.0 

include listing.inc

INCLUDELIB LIBCMT
INCLUDELIB OLDNAMES

PUBLIC	?ThreadProc@@YAKPEAX@Z				; ThreadProc
pdata	SEGMENT
$pdata$?ThreadProc@@YAKPEAX@Z DD imagerel $LN3
	DD	imagerel $LN3+97
	DD	imagerel $unwind$?ThreadProc@@YAKPEAX@Z
pdata	ENDS
xdata	SEGMENT
$unwind$?ThreadProc@@YAKPEAX@Z DD 020a01H
	DD	07006720aH
xdata	ENDS
; Function compile flags: /Odtp
_TEXT	SEGMENT
a$ = 32
dvi$ = 40
lpParameter$ = 80
?ThreadProc@@YAKPEAX@Z PROC				; ThreadProc
; File e:\github.com\andlabs\barspy\call\dllgetversion\call.cpp
; Line 34
$LN3:
  00000	48 89 4c 24 08	 mov	 QWORD PTR [rsp+8], rcx
  00005	57		 push	 rdi
  00006	48 83 ec 40	 sub	 rsp, 64			; 00000040H
; Line 35
  0000a	48 8b 44 24 50	 mov	 rax, QWORD PTR lpParameter$[rsp]
  0000f	48 89 44 24 20	 mov	 QWORD PTR a$[rsp], rax
; Line 38
  00014	48 8d 44 24 28	 lea	 rax, QWORD PTR dvi$[rsp]
  00019	48 8b f8	 mov	 rdi, rax
  0001c	33 c0		 xor	 eax, eax
  0001e	b9 14 00 00 00	 mov	 ecx, 20
  00023	f3 aa		 rep stosb
; Line 39
  00025	c7 44 24 28 14
	00 00 00	 mov	 DWORD PTR dvi$[rsp], 20
; Line 40
  0002d	48 8d 4c 24 28	 lea	 rcx, QWORD PTR dvi$[rsp]
  00032	48 8b 44 24 20	 mov	 rax, QWORD PTR a$[rsp]
  00037	ff 10		 call	 QWORD PTR [rax]
  00039	48 8b 4c 24 20	 mov	 rcx, QWORD PTR a$[rsp]
  0003e	89 41 10	 mov	 DWORD PTR [rcx+16], eax
; Line 41
  00041	48 8b 44 24 20	 mov	 rax, QWORD PTR a$[rsp]
  00046	8b 4c 24 2c	 mov	 ecx, DWORD PTR dvi$[rsp+4]
  0004a	89 48 08	 mov	 DWORD PTR [rax+8], ecx
; Line 42
  0004d	48 8b 44 24 20	 mov	 rax, QWORD PTR a$[rsp]
  00052	8b 4c 24 30	 mov	 ecx, DWORD PTR dvi$[rsp+8]
  00056	89 48 0c	 mov	 DWORD PTR [rax+12], ecx
; Line 43
  00059	33 c0		 xor	 eax, eax
; Line 44
  0005b	48 83 c4 40	 add	 rsp, 64			; 00000040H
  0005f	5f		 pop	 rdi
  00060	c3		 ret	 0
?ThreadProc@@YAKPEAX@Z ENDP				; ThreadProc
_TEXT	ENDS
END
