; Listing generated by Microsoft (R) Optimizing Compiler Version 18.00.30723.0 

include listing.inc

INCLUDELIB LIBCMT
INCLUDELIB OLDNAMES

PUBLIC	?ThreadProc@@YAKPEAX@Z				; ThreadProc
pdata	SEGMENT
$pdata$?ThreadProc@@YAKPEAX@Z DD imagerel $LN3
	DD	imagerel $LN3+66
	DD	imagerel $unwind$?ThreadProc@@YAKPEAX@Z
pdata	ENDS
xdata	SEGMENT
$unwind$?ThreadProc@@YAKPEAX@Z DD 010901H
	DD	06209H
xdata	ENDS
; Function compile flags: /Odtp
_TEXT	SEGMENT
a$ = 32
lpParameter$ = 64
?ThreadProc@@YAKPEAX@Z PROC				; ThreadProc
; File e:\github.com\andlabs\barspy\call\freelibrary\call.cpp
; Line 30
$LN3:
  00000	48 89 4c 24 08	 mov	 QWORD PTR [rsp+8], rcx
  00005	48 83 ec 38	 sub	 rsp, 56			; 00000038H
; Line 31
  00009	48 8b 44 24 40	 mov	 rax, QWORD PTR lpParameter$[rsp]
  0000e	48 89 44 24 20	 mov	 QWORD PTR a$[rsp], rax
; Line 33
  00013	48 8b 44 24 20	 mov	 rax, QWORD PTR a$[rsp]
  00018	48 8b 48 10	 mov	 rcx, QWORD PTR [rax+16]
  0001c	48 8b 44 24 20	 mov	 rax, QWORD PTR a$[rsp]
  00021	ff 10		 call	 QWORD PTR [rax]
  00023	48 8b 4c 24 20	 mov	 rcx, QWORD PTR a$[rsp]
  00028	89 41 18	 mov	 DWORD PTR [rcx+24], eax
; Line 34
  0002b	48 8b 44 24 20	 mov	 rax, QWORD PTR a$[rsp]
  00030	ff 50 08	 call	 QWORD PTR [rax+8]
  00033	48 8b 4c 24 20	 mov	 rcx, QWORD PTR a$[rsp]
  00038	89 41 1c	 mov	 DWORD PTR [rcx+28], eax
; Line 35
  0003b	33 c0		 xor	 eax, eax
; Line 36
  0003d	48 83 c4 38	 add	 rsp, 56			; 00000038H
  00041	c3		 ret	 0
?ThreadProc@@YAKPEAX@Z ENDP				; ThreadProc
_TEXT	ENDS
END
