; Listing generated by Microsoft (R) Optimizing Compiler Version 18.00.30723.0 

	TITLE	E:\github.com\andlabs\barspy\call.cpp
	.686P
	.XMM
	include listing.inc
	.model	flat

INCLUDELIB LIBCMT
INCLUDELIB OLDNAMES

PUBLIC	?ThreadProc@@YGKPAX@Z				; ThreadProc
; Function compile flags: /Odtp
_TEXT	SEGMENT
_a$ = -4						; size = 4
_lpParameter$ = 8					; size = 4
?ThreadProc@@YGKPAX@Z PROC				; ThreadProc
; File e:\github.com\andlabs\barspy\call.cpp
; Line 31
  00000	55		 push	 ebp
  00001	8b ec		 mov	 ebp, esp
  00003	51		 push	 ecx
; Line 32
  00004	8b 45 08	 mov	 eax, DWORD PTR _lpParameter$[ebp]
  00007	89 45 fc	 mov	 DWORD PTR _a$[ebp], eax
; Line 34
  0000a	68 04 01 00 00	 push	 260			; 00000104H
  0000f	8b 4d fc	 mov	 ecx, DWORD PTR _a$[ebp]
  00012	8b 51 0c	 mov	 edx, DWORD PTR [ecx+12]
  00015	52		 push	 edx
  00016	8b 45 fc	 mov	 eax, DWORD PTR _a$[ebp]
  00019	0f b7 48 08	 movzx	 ecx, WORD PTR [eax+8]
  0001d	51		 push	 ecx
  0001e	8b 55 fc	 mov	 edx, DWORD PTR _a$[ebp]
  00021	8b 02		 mov	 eax, DWORD PTR [edx]
  00023	ff d0		 call	 eax
  00025	8b 4d fc	 mov	 ecx, DWORD PTR _a$[ebp]
  00028	89 41 10	 mov	 DWORD PTR [ecx+16], eax
; Line 35
  0002b	8b 55 fc	 mov	 edx, DWORD PTR _a$[ebp]
  0002e	8b 42 04	 mov	 eax, DWORD PTR [edx+4]
  00031	ff d0		 call	 eax
  00033	8b 4d fc	 mov	 ecx, DWORD PTR _a$[ebp]
  00036	89 41 14	 mov	 DWORD PTR [ecx+20], eax
; Line 36
  00039	33 c0		 xor	 eax, eax
; Line 37
  0003b	8b e5		 mov	 esp, ebp
  0003d	5d		 pop	 ebp
  0003e	c2 04 00	 ret	 4
?ThreadProc@@YGKPAX@Z ENDP				; ThreadProc
_TEXT	ENDS
END
